target datalayout = "e-m:e-p270:32:32-p271:32:32-p272:64:64-i64:64-i128:128-f80:128-n8:16:32:64-S128"
target triple = "x86_64-pc-linux-gnu"

%struct.clamscan_cb_data = type { ptr, ptr }
%struct.metachain = type { ptr, i64, i64, i64, i64 }

@.str.160 = private unnamed_addr constant [9 x i8] c"CL_TYPE_\00", align 1
@.str.161 = private unnamed_addr constant [4 x i8] c"ANY\00", align 1
@.str.162 = private unnamed_addr constant [3 x i8] c"%s\00", align 1
@.str.163 = private unnamed_addr constant [6 x i8] c"%s:%s\00", align 1
@.str.164 = private unnamed_addr constant [18 x i8] c"Scanning %s%s!%s\0A\00", align 1
@.str.165 = private unnamed_addr constant [4 x i8] c"...\00", align 1
@.str.166 = private unnamed_addr constant [1 x i8] zeroinitializer, align 1

; Function Attrs: nounwind uwtable
define internal i32 @print_chain(ptr noundef %0, ptr noundef %1, i64 noundef %2) #0 {
  %4 = alloca ptr, align 8
  %5 = alloca ptr, align 8
  %6 = alloca i64, align 8
  %7 = alloca i64, align 8
  %8 = alloca i64, align 8
  %9 = alloca i64, align 8
  store ptr %0, ptr %4, align 8
  store ptr %1, ptr %5, align 8
  store i64 %2, ptr %6, align 8
  store i64 0, ptr %8, align 8
  store i64 0, ptr %7, align 8
  br label %10

10:                                               ; preds = %54, %3
  %11 = load i64, ptr %7, align 8
  %12 = load ptr, ptr %4, align 8
  %13 = getelementptr inbounds %struct.metachain, ptr %12, i32 0, i32 4
  %14 = load i64, ptr %13, align 8
  %15 = sub i64 %14, 1
  %16 = icmp ult i64 %11, %15
  br i1 %16, label %17, label %57

17:                                               ; preds = %10
  %18 = load ptr, ptr %4, align 8
  %19 = getelementptr inbounds %struct.metachain, ptr %18, i32 0, i32 0
  %20 = load ptr, ptr %19, align 8
  %21 = load i64, ptr %7, align 8
  %22 = getelementptr inbounds ptr, ptr %20, i64 %21
  %23 = load ptr, ptr %22, align 8
  %24 = call i64 @strlen(ptr noundef %23) #11
  store i64 %24, ptr %9, align 8
  %25 = load i64, ptr %8, align 8
  %26 = icmp ne i64 %25, 0
  br i1 %26, label %27, label %32

27:                                               ; preds = %17
  %28 = load ptr, ptr %5, align 8
  %29 = load i64, ptr %8, align 8
  %30 = add i64 %29, 1
  store i64 %30, ptr %8, align 8
  %31 = getelementptr inbounds i8, ptr %28, i64 %29
  store i8 33, ptr %31, align 1
  br label %32

32:                                               ; preds = %27, %17
  %33 = load i64, ptr %9, align 8
  %34 = load i64, ptr %8, align 8
  %35 = add i64 %33, %34
  %36 = add i64 %35, 2
  %37 = load i64, ptr %6, align 8
  %38 = icmp ugt i64 %36, %37
  br i1 %38, label %39, label %40

39:                                               ; preds = %32
  br label %57

40:                                               ; preds = %32
  %41 = load ptr, ptr %5, align 8
  %42 = load i64, ptr %8, align 8
  %43 = getelementptr inbounds i8, ptr %41, i64 %42
  %44 = load ptr, ptr %4, align 8
  %45 = getelementptr inbounds %struct.metachain, ptr %44, i32 0, i32 0
  %46 = load ptr, ptr %45, align 8
  %47 = load i64, ptr %7, align 8
  %48 = getelementptr inbounds ptr, ptr %46, i64 %47
  %49 = load ptr, ptr %48, align 8
  %50 = load i64, ptr %9, align 8
  call void @llvm.memcpy.p0.p0.i64(ptr align 1 %43, ptr align 1 %49, i64 %50, i1 false)
  %51 = load i64, ptr %9, align 8
  %52 = load i64, ptr %8, align 8
  %53 = add i64 %52, %51
  store i64 %53, ptr %8, align 8
  br label %54

54:                                               ; preds = %40
  %55 = load i64, ptr %7, align 8
  %56 = add i64 %55, 1
  store i64 %56, ptr %7, align 8
  br label %10

57:                                               ; preds = %39, %10
  %58 = load ptr, ptr %5, align 8
  %59 = load i64, ptr %8, align 8
  %60 = getelementptr inbounds i8, ptr %58, i64 %59
  store i8 0, ptr %60, align 1
  %61 = load ptr, ptr %5, align 8
  %62 = load i64, ptr %6, align 8
  %63 = sub i64 %62, 1
  %64 = getelementptr inbounds i8, ptr %61, i64 %63
  store i8 0, ptr %64, align 1
  %65 = load i64, ptr %7, align 8
  %66 = load ptr, ptr %4, align 8
  %67 = getelementptr inbounds %struct.metachain, ptr %66, i32 0, i32 4
  %68 = load i64, ptr %67, align 8
  %69 = sub i64 %68, 1
  %70 = icmp eq i64 %65, %69
  %71 = select i1 %70, i32 0, i32 1
  ret i32 %71
}

; Function Attrs: nounwind uwtable
define internal i32 @meta(ptr noundef %0, i64 noundef %1, ptr noundef %2, i64 noundef %3, i32 noundef %4, i32 noundef %5, ptr noundef %6) #0 {
  %8 = alloca i32, align 4
  %9 = alloca ptr, align 8
  %10 = alloca i64, align 8
  %11 = alloca ptr, align 8
  %12 = alloca i64, align 8
  %13 = alloca i32, align 4
  %14 = alloca i32, align 4
  %15 = alloca ptr, align 8
  %16 = alloca [128 x i8], align 16
  %17 = alloca ptr, align 8
  %18 = alloca ptr, align 8
  %19 = alloca ptr, align 8
  %20 = alloca i64, align 8
  %21 = alloca ptr, align 8
  %22 = alloca ptr, align 8
  %23 = alloca i32, align 4
  store ptr %0, ptr %9, align 8
  store i64 %1, ptr %10, align 8
  store ptr %2, ptr %11, align 8
  store i64 %3, ptr %12, align 8
  store i32 %4, ptr %13, align 4
  store i32 %5, ptr %14, align 4
  store ptr %6, ptr %15, align 8
  %24 = load ptr, ptr %15, align 8
  %25 = icmp ne ptr %24, null
  br i1 %25, label %27, label %26

26:                                               ; preds = %7
  store i32 0, ptr %8, align 4
  br label %150

27:                                               ; preds = %7
  %28 = load ptr, ptr %15, align 8
  store ptr %28, ptr %18, align 8
  %29 = load ptr, ptr %18, align 8
  %30 = getelementptr inbounds %struct.clamscan_cb_data, ptr %29, i32 0, i32 0
  %31 = load ptr, ptr %30, align 8
  store ptr %31, ptr %17, align 8
  %32 = load ptr, ptr %9, align 8
  %33 = call i32 @strncmp(ptr noundef %32, ptr noundef @.str.160, i64 noundef 8) #11
  %34 = icmp eq i32 %33, 0
  br i1 %34, label %35, label %38

35:                                               ; preds = %27
  %36 = load ptr, ptr %9, align 8
  %37 = getelementptr inbounds i8, ptr %36, i64 8
  br label %40

38:                                               ; preds = %27
  %39 = load ptr, ptr %9, align 8
  br label %40

40:                                               ; preds = %38, %35
  %41 = phi ptr [ %37, %35 ], [ %39, %38 ]
  store ptr %41, ptr %19, align 8
  %42 = load ptr, ptr %19, align 8
  %43 = call i64 @strlen(ptr noundef %42) #11
  %44 = load ptr, ptr %11, align 8
  %45 = call i64 @strlen(ptr noundef %44) #11
  %46 = add i64 %43, %45
  %47 = add i64 %46, 2
  store i64 %47, ptr %20, align 8
  %48 = load ptr, ptr %17, align 8
  %49 = icmp ne ptr %48, null
  br i1 %49, label %51, label %50

50:                                               ; preds = %40
  store i32 0, ptr %8, align 4
  br label %150

51:                                               ; preds = %40
  %52 = load i64, ptr %20, align 8
  %53 = call noalias ptr @malloc(i64 noundef %52) #14
  store ptr %53, ptr %21, align 8
  %54 = load ptr, ptr %21, align 8
  %55 = icmp ne ptr %54, null
  br i1 %55, label %57, label %56

56:                                               ; preds = %51
  store i32 0, ptr %8, align 4
  br label %150

57:                                               ; preds = %51
  %58 = load ptr, ptr %19, align 8
  %59 = call i32 @strcmp(ptr noundef %58, ptr noundef @.str.161) #11
  %60 = icmp ne i32 %59, 0
  br i1 %60, label %66, label %61

61:                                               ; preds = %57
  %62 = load ptr, ptr %21, align 8
  %63 = load i64, ptr %20, align 8
  %64 = load ptr, ptr %11, align 8
  %65 = call i32 (ptr, i64, ptr, ...) @snprintf(ptr noundef %62, i64 noundef %63, ptr noundef @.str.162, ptr noundef %64) #12
  br label %72

66:                                               ; preds = %57
  %67 = load ptr, ptr %21, align 8
  %68 = load i64, ptr %20, align 8
  %69 = load ptr, ptr %19, align 8
  %70 = load ptr, ptr %11, align 8
  %71 = call i32 (ptr, i64, ptr, ...) @snprintf(ptr noundef %67, i64 noundef %68, ptr noundef @.str.163, ptr noundef %69, ptr noundef %70) #12
  br label %72

72:                                               ; preds = %66, %61
  %73 = load ptr, ptr %17, align 8
  %74 = getelementptr inbounds %struct.metachain, ptr %73, i32 0, i32 1
  %75 = load i64, ptr %74, align 8
  %76 = load ptr, ptr %17, align 8
  %77 = getelementptr inbounds %struct.metachain, ptr %76, i32 0, i32 3
  %78 = load i64, ptr %77, align 8
  %79 = icmp ne i64 %75, %78
  br i1 %79, label %80, label %107

80:                                               ; preds = %72
  %81 = load ptr, ptr %17, align 8
  %82 = getelementptr inbounds %struct.metachain, ptr %81, i32 0, i32 4
  %83 = load i64, ptr %82, align 8
  %84 = add i64 %83, 1
  store i64 %84, ptr %20, align 8
  %85 = load ptr, ptr %17, align 8
  %86 = getelementptr inbounds %struct.metachain, ptr %85, i32 0, i32 0
  %87 = load ptr, ptr %86, align 8
  %88 = load i64, ptr %20, align 8
  %89 = mul i64 %88, 8
  %90 = call ptr @realloc(ptr noundef %87, i64 noundef %89) #13
  store ptr %90, ptr %22, align 8
  %91 = load ptr, ptr %22, align 8
  %92 = icmp ne ptr %91, null
  br i1 %92, label %95, label %93

93:                                               ; preds = %80
  %94 = load ptr, ptr %21, align 8
  call void @free(ptr noundef %94) #12
  store i32 0, ptr %8, align 4
  br label %150

95:                                               ; preds = %80
  %96 = load ptr, ptr %22, align 8
  %97 = load ptr, ptr %17, align 8
  %98 = getelementptr inbounds %struct.metachain, ptr %97, i32 0, i32 0
  store ptr %96, ptr %98, align 8
  %99 = load i64, ptr %20, align 8
  %100 = load ptr, ptr %17, align 8
  %101 = getelementptr inbounds %struct.metachain, ptr %100, i32 0, i32 4
  store i64 %99, ptr %101, align 8
  %102 = load ptr, ptr %17, align 8
  %103 = getelementptr inbounds %struct.metachain, ptr %102, i32 0, i32 3
  %104 = load i64, ptr %103, align 8
  %105 = load ptr, ptr %17, align 8
  %106 = getelementptr inbounds %struct.metachain, ptr %105, i32 0, i32 1
  store i64 %104, ptr %106, align 8
  br label %123

107:                                              ; preds = %72
  %108 = load ptr, ptr %17, align 8
  %109 = getelementptr inbounds %struct.metachain, ptr %108, i32 0, i32 4
  %110 = load i64, ptr %109, align 8
  %111 = icmp ugt i64 %110, 0
  br i1 %111, label %112, label %122

112:                                              ; preds = %107
  %113 = load ptr, ptr %17, align 8
  %114 = getelementptr inbounds %struct.metachain, ptr %113, i32 0, i32 0
  %115 = load ptr, ptr %114, align 8
  %116 = load ptr, ptr %17, align 8
  %117 = getelementptr inbounds %struct.metachain, ptr %116, i32 0, i32 4
  %118 = load i64, ptr %117, align 8
  %119 = sub i64 %118, 1
  %120 = getelementptr inbounds ptr, ptr %115, i64 %119
  %121 = load ptr, ptr %120, align 8
  call void @free(ptr noundef %121) #12
  br label %122

122:                                              ; preds = %112, %107
  br label %123

123:                                              ; preds = %122, %95
  %124 = load ptr, ptr %17, align 8
  %125 = getelementptr inbounds %struct.metachain, ptr %124, i32 0, i32 4
  %126 = load i64, ptr %125, align 8
  %127 = icmp ugt i64 %126, 0
  br i1 %127, label %128, label %147

128:                                              ; preds = %123
  %129 = load ptr, ptr %21, align 8
  %130 = load ptr, ptr %17, align 8
  %131 = getelementptr inbounds %struct.metachain, ptr %130, i32 0, i32 0
  %132 = load ptr, ptr %131, align 8
  %133 = load ptr, ptr %17, align 8
  %134 = getelementptr inbounds %struct.metachain, ptr %133, i32 0, i32 4
  %135 = load i64, ptr %134, align 8
  %136 = sub i64 %135, 1
  %137 = getelementptr inbounds ptr, ptr %132, i64 %136
  store ptr %129, ptr %137, align 8
  %138 = load ptr, ptr %17, align 8
  %139 = getelementptr inbounds [128 x i8], ptr %16, i64 0, i64 0
  %140 = call i32 @print_chain(ptr noundef %138, ptr noundef %139, i64 noundef 128)
  store i32 %140, ptr %23, align 4
  %141 = getelementptr inbounds [128 x i8], ptr %16, i64 0, i64 0
  %142 = load i32, ptr %23, align 4
  %143 = icmp ne i32 %142, 0
  %144 = select i1 %143, ptr @.str.165, ptr @.str.166
  %145 = load ptr, ptr %21, align 8
  %146 = call i32 (i32, ptr, ...) @logg(i32 noundef 2, ptr noundef @.str.164, ptr noundef %141, ptr noundef %144, ptr noundef %145)
  br label %149

147:                                              ; preds = %123
  %148 = load ptr, ptr %21, align 8
  call void @free(ptr noundef %148) #12
  br label %149

149:                                              ; preds = %147, %128
  store i32 0, ptr %8, align 4
  br label %150

150:                                              ; preds = %149, %93, %56, %50, %26
  %151 = load i32, ptr %8, align 4
  ret i32 %151
}