; Function Attrs: nounwind uwtable
define internal noundef i32 @meta(ptr noundef %0, i64 %1, ptr noundef %2, i64 %3, i32 %4, i32 %5, ptr noundef readonly %6) #0 {
  %8 = alloca [128 x i8], align 16
  %.not = icmp eq ptr %6, null
  br i1 %.not, label %75, label %9

9:                                                ; preds = %7
  %10 = load ptr, ptr %6, align 8
  %11 = tail call i32 @strncmp(ptr noundef nonnull dereferenceable(1) %0, ptr noundef nonnull dereferenceable(9) @.str.160, i64 noundef 8) #22
  %12 = icmp eq i32 %11, 0
  %.idx = select i1 %12, i64 8, i64 0
  %13 = getelementptr inbounds i8, ptr %0, i64 %.idx
  %14 = tail call i64 @strlen(ptr noundef nonnull dereferenceable(1) %13) #22
  %15 = tail call i64 @strlen(ptr noundef nonnull dereferenceable(1) %2) #22
  %16 = add i64 %14, 2
  %17 = add i64 %16, %15
  %.not48 = icmp eq ptr %10, null
  br i1 %.not48, label %75, label %18

18:                                               ; preds = %9
  %19 = tail call noalias ptr @malloc(i64 noundef %17) #24
  %.not49 = icmp eq ptr %19, null
  br i1 %.not49, label %75, label %20

20:                                               ; preds = %18
  %21 = tail call i32 @strcmp(ptr noundef nonnull dereferenceable(1) %13, ptr noundef nonnull dereferenceable(4) @.str.161) #22
  %.not50 = icmp eq i32 %21, 0
  br i1 %.not50, label %22, label %24

22:                                               ; preds = %20
  %23 = tail call i32 (ptr, i64, ptr, ...) @snprintf(ptr noundef nonnull %19, i64 noundef %17, ptr noundef nonnull @.str.162, ptr noundef %2) #21
  br label %26

24:                                               ; preds = %20
  %25 = tail call i32 (ptr, i64, ptr, ...) @snprintf(ptr noundef nonnull %19, i64 noundef %17, ptr noundef nonnull @.str.163, ptr noundef %13, ptr noundef %2) #21
  br label %26

26:                                               ; preds = %24, %22
  %27 = getelementptr inbounds i8, ptr %10, i64 8
  %28 = load i64, ptr %27, align 8
  %29 = getelementptr inbounds i8, ptr %10, i64 24
  %30 = load i64, ptr %29, align 8
  %.not51 = icmp eq i64 %28, %30
  %31 = getelementptr inbounds i8, ptr %10, i64 32
  %32 = load i64, ptr %31, align 8
  br i1 %.not51, label %41, label %33

33:                                               ; preds = %26
  %34 = add i64 %32, 1
  %35 = load ptr, ptr %10, align 8
  %36 = shl i64 %34, 3
  %37 = tail call ptr @realloc(ptr noundef %35, i64 noundef %36) #23
  %.not53 = icmp eq ptr %37, null
  br i1 %.not53, label %38, label %39

38:                                               ; preds = %33
  tail call void @free(ptr noundef nonnull %19) #21
  br label %75

39:                                               ; preds = %33
  store ptr %37, ptr %10, align 8
  store i64 %34, ptr %31, align 8
  %40 = load i64, ptr %29, align 8
  store i64 %40, ptr %27, align 8
  br label %47

41:                                               ; preds = %26
  %.not52 = icmp eq i64 %32, 0
  br i1 %.not52, label %.thread, label %42

42:                                               ; preds = %41
  %43 = load ptr, ptr %10, align 8
  %44 = getelementptr ptr, ptr %43, i64 %32
  %45 = getelementptr i8, ptr %44, i64 -8
  %46 = load ptr, ptr %45, align 8
  tail call void @free(ptr noundef %46) #21
  %.pre = load i64, ptr %31, align 8
  br label %47

47:                                               ; preds = %42, %39
  %48 = phi i64 [ %.pre, %42 ], [ %34, %39 ]
  %.not54 = icmp eq i64 %48, 0
  br i1 %.not54, label %.thread, label %49

49:                                               ; preds = %47
  %50 = getelementptr inbounds i8, ptr %10, i64 32
  %51 = load ptr, ptr %10, align 8
  %52 = getelementptr ptr, ptr %51, i64 %48
  %53 = getelementptr i8, ptr %52, i64 -8
  store ptr %19, ptr %53, align 8
  %54 = load i64, ptr %50, align 8
  %.not30.i = icmp eq i64 %54, 1
  br i1 %.not30.i, label %print_chain.exit, label %.lr.ph.i.preheader

.lr.ph.i.preheader:                               ; preds = %49
  %.pre57 = load ptr, ptr %10, align 8
  %55 = add i64 %54, -1
  br label %.lr.ph.i

.lr.ph.i:                                         ; preds = %.lr.ph.i.preheader, %66
  %.025.i = phi i64 [ %68, %66 ], [ 0, %.lr.ph.i.preheader ]
  %.02324.i = phi i64 [ %63, %66 ], [ 0, %.lr.ph.i.preheader ]
  %56 = getelementptr inbounds ptr, ptr %.pre57, i64 %.025.i
  %57 = load ptr, ptr %56, align 8
  %58 = tail call i64 @strlen(ptr noundef nonnull dereferenceable(1) %57) #22
  %.not.i = icmp eq i64 %.02324.i, 0
  br i1 %.not.i, label %62, label %59

59:                                               ; preds = %.lr.ph.i
  %60 = add i64 %.02324.i, 1
  %61 = getelementptr inbounds i8, ptr %8, i64 %.02324.i
  store i8 33, ptr %61, align 1
  br label %62

62:                                               ; preds = %59, %.lr.ph.i
  %.1.i = phi i64 [ %60, %59 ], [ 0, %.lr.ph.i ]
  %63 = add i64 %.1.i, %58
  %64 = add i64 %63, -127
  %65 = icmp ult i64 %64, -129
  br i1 %65, label %print_chain.exit, label %66

66:                                               ; preds = %62
  %67 = getelementptr inbounds i8, ptr %8, i64 %.1.i
  call void @llvm.memcpy.p0.p0.i64(ptr nonnull align 1 %67, ptr align 1 %57, i64 %58, i1 false)
  %68 = add nuw i64 %.025.i, 1
  %69 = icmp ult i64 %68, %55
  br i1 %69, label %.lr.ph.i, label %print_chain.exit

print_chain.exit:                                 ; preds = %62, %66, %49
  %.0.lcssa.i = phi i64 [ 0, %49 ], [ %68, %66 ], [ %.025.i, %62 ]
  %.2.i = phi i64 [ 0, %49 ], [ %63, %66 ], [ %.1.i, %62 ]
  %70 = getelementptr inbounds i8, ptr %8, i64 %.2.i
  store i8 0, ptr %70, align 1
  %71 = getelementptr inbounds i8, ptr %8, i64 127
  store i8 0, ptr %71, align 1
  %72 = add i64 %54, -1
  %.not56 = icmp eq i64 %.0.lcssa.i, %72
  %73 = select i1 %.not56, ptr @.str.166, ptr @.str.165
  %74 = call i32 (i32, ptr, ...) @logg(i32 noundef 2, ptr noundef nonnull @.str.164, ptr noundef nonnull %8, ptr noundef nonnull %73, ptr noundef nonnull %19) #21
  br label %75

.thread:                                          ; preds = %41, %47
  tail call void @free(ptr noundef nonnull %19) #21
  br label %75

75:                                               ; preds = %print_chain.exit, %.thread, %18, %9, %7, %38
  ret i32 0
}